target datalayout = "e-m:e-p270:32:32-p271:32:32-p272:64:64-i64:64-i128:128-f80:128-n8:16:32:64-S128"
target triple = "x86_64-pc-linux-gnu"

%struct.ImVector.1 = type { i32, i32, ptr }
%struct.ImFont = type <{ %struct.ImVector.6, float, float, %struct.ImVector.1, %struct.ImVector.7, ptr, ptr, ptr, i16, i16, i16, i16, float, float, i8, [3 x i8], float, float, float, i32, [2 x i8], [2 x i8] }>
%struct.ImVector.6 = type { i32, i32, ptr }
%struct.ImVector.7 = type { i32, i32, ptr }
%struct.ImFontGlyph = type { i32, float, float, float, float, float, float, float, float, float }

; Function Attrs: mustprogress nounwind uwtable
define dso_local noundef ptr @_ZNK6ImFont19FindGlyphNoFallbackEt(ptr noundef nonnull align 8 dereferenceable(118) %0, i16 noundef zeroext %1) #3 align 2 {
  %3 = alloca ptr, align 8
  %4 = alloca ptr, align 8
  %5 = alloca i16, align 2
  %6 = alloca i16, align 2
  %7 = alloca i32, align 4
  store ptr %0, ptr %4, align 8, !tbaa !169
  store i16 %1, ptr %5, align 2, !tbaa !140
  %8 = load ptr, ptr %4, align 8
  %9 = load i16, ptr %5, align 2, !tbaa !140
  %10 = zext i16 %9 to i64
  %11 = getelementptr inbounds nuw %struct.ImFont, ptr %8, i32 0, i32 3
  %12 = getelementptr inbounds nuw %struct.ImVector.1, ptr %11, i32 0, i32 0
  %13 = load i32, ptr %12, align 8, !tbaa !506
  %14 = sext i32 %13 to i64
  %15 = icmp uge i64 %10, %14
  br i1 %15, label %16, label %17

16:                                               ; preds = %2
  store ptr null, ptr %3, align 8
  br label %37

17:                                               ; preds = %2
  call void @llvm.lifetime.start.p0(i64 2, ptr %6) #17
  %18 = getelementptr inbounds nuw %struct.ImFont, ptr %8, i32 0, i32 3
  %19 = getelementptr inbounds nuw %struct.ImVector.1, ptr %18, i32 0, i32 2
  %20 = load ptr, ptr %19, align 8, !tbaa !507
  %21 = load i16, ptr %5, align 2, !tbaa !140
  %22 = zext i16 %21 to i64
  %23 = getelementptr inbounds nuw i16, ptr %20, i64 %22
  %24 = load i16, ptr %23, align 2, !tbaa !140
  store i16 %24, ptr %6, align 2, !tbaa !140
  %25 = load i16, ptr %6, align 2, !tbaa !140
  %26 = zext i16 %25 to i32
  %27 = icmp eq i32 %26, 65535
  br i1 %27, label %28, label %29

28:                                               ; preds = %17
  store ptr null, ptr %3, align 8
  store i32 1, ptr %7, align 4
  br label %36

29:                                               ; preds = %17
  %30 = getelementptr inbounds nuw %struct.ImFont, ptr %8, i32 0, i32 4
  %31 = getelementptr inbounds nuw %struct.ImVector.7, ptr %30, i32 0, i32 2
  %32 = load ptr, ptr %31, align 8, !tbaa !508
  %33 = load i16, ptr %6, align 2, !tbaa !140
  %34 = zext i16 %33 to i64
  %35 = getelementptr inbounds nuw %struct.ImFontGlyph, ptr %32, i64 %34
  store ptr %35, ptr %3, align 8
  store i32 1, ptr %7, align 4
  br label %36

36:                                               ; preds = %29, %28
  call void @llvm.lifetime.end.p0(i64 2, ptr %6) #17
  br label %37

37:                                               ; preds = %36, %16
  %38 = load ptr, ptr %3, align 8
  ret ptr %38
}