; Function Attrs: mustprogress nofree norecurse nosync nounwind willreturn memory(read, inaccessiblemem: none) uwtable
define dso_local noundef ptr @_ZNK6ImFont19FindGlyphNoFallbackEt(ptr noundef nonnull readonly align 8 captures(none) dereferenceable(118) %0, i16 noundef zeroext %1) local_unnamed_addr #34 align 2 {
  %3 = zext i16 %1 to i64
  %4 = getelementptr inbounds nuw i8, ptr %0, i64 24
  %5 = load i32, ptr %4, align 8, !tbaa !152
  %6 = sext i32 %5 to i64
  %.not = icmp ult i64 %3, %6
  br i1 %.not, label %7, label %17

7:                                                ; preds = %2
  %8 = getelementptr inbounds nuw i8, ptr %0, i64 32
  %9 = load ptr, ptr %8, align 8, !tbaa !154
  %10 = getelementptr inbounds nuw i16, ptr %9, i64 %3
  %11 = load i16, ptr %10, align 2, !tbaa !104
  %12 = icmp eq i16 %11, -1
  %13 = getelementptr inbounds nuw i8, ptr %0, i64 48
  %14 = load ptr, ptr %13, align 8
  %15 = zext i16 %11 to i64
  %16 = getelementptr inbounds nuw %struct.ImFontGlyph, ptr %14, i64 %15
  %.1 = select i1 %12, ptr null, ptr %16
  br label %17

17:                                               ; preds = %2, %7
  %.0 = phi ptr [ %.1, %7 ], [ null, %2 ]
  ret ptr %.0
}